Certificate:
    Data:
        Version: 3 (0x2)
        Serial Number: 1 (0x1)
    Signature Algorithm: sha256WithRSAEncryption
        Issuer: C=CN, ST=Guangdong, L=Shenzhen, O=FreeSign Ltd, OU=R&D, CN=fedora.freesign.net/emailAddress=taozhijiang@gmail.com
        Validity
            Not Before: Nov 20 06:45:36 2015 GMT
            Not After : Nov 19 06:45:36 2018 GMT
        Subject: C=CN, ST=Guangdong, O=Test Company Ltd, OU=Test Department, CN=test.freesign.net/emailAddress=tttt@gmail.com
        Subject Public Key Info:
            Public Key Algorithm: rsaEncryption
                Public-Key: (2048 bit)
                Modulus:
                    00:c8:2f:fd:88:b1:63:ad:27:3a:4e:fb:a2:d8:ec:
                    8b:e4:f2:e9:4e:e3:c1:f9:45:5f:99:02:92:e0:98:
                    2f:fc:80:b0:37:f6:13:d3:ce:a8:4d:b5:e4:47:ac:
                    04:06:a1:6e:b8:1f:24:37:a6:7b:de:8f:10:31:a6:
                    8d:64:73:59:98:e1:1f:bb:3e:11:8e:47:7d:f7:53:
                    af:25:c1:c0:1a:df:1c:9e:b9:35:51:5b:92:a2:78:
                    7f:a6:e4:46:92:36:51:b6:47:36:de:fd:1b:e5:3b:
                    61:8c:05:cd:0e:04:86:ac:7b:53:47:e8:f4:13:87:
                    3a:96:0d:26:39:39:c6:d2:86:26:1a:03:9b:75:bd:
                    6d:dd:9a:83:3b:e3:78:55:a4:35:08:83:ed:1f:55:
                    74:24:b5:db:bd:e1:24:29:82:71:67:ce:f2:4c:09:
                    c1:21:38:a4:1b:28:4b:3d:43:fa:0f:c3:8c:29:23:
                    2e:7e:c1:f0:7f:58:ad:a5:81:a6:4b:ca:38:9f:e3:
                    85:d0:27:c6:30:54:ac:d4:0b:f5:24:96:75:4c:7a:
                    d3:2d:21:34:fe:a6:08:95:77:3b:93:21:6b:38:23:
                    d1:2b:e1:76:6e:98:5b:15:46:6e:fd:55:e8:41:83:
                    1b:c3:07:72:e2:45:30:e4:e3:c2:3c:90:a7:c0:22:
                    52:d3
                Exponent: 65537 (0x10001)
        X509v3 extensions:
            X509v3 Basic Constraints: 
                CA:FALSE
            Netscape Comment: 
                OpenSSL Generated Certificate
            X509v3 Subject Key Identifier: 
                EF:96:7F:97:19:2B:87:75:AF:B2:F7:B4:6F:58:26:1B:E9:AA:07:3E
            X509v3 Authority Key Identifier: 
                keyid:AF:64:CD:31:A9:4C:FB:5C:0D:E3:C4:91:0E:A9:1C:D8:CE:19:97:E6

    Signature Algorithm: sha256WithRSAEncryption
         72:99:76:f6:23:f6:4c:63:57:99:27:c8:ea:ad:90:c5:ad:76:
         06:2f:b1:19:63:c8:35:53:32:0c:25:86:f9:32:dd:16:47:ad:
         8b:f2:d0:ce:89:a9:7d:08:e5:12:da:c6:a1:60:5b:10:ae:b9:
         da:69:67:e8:43:15:de:80:ab:4f:d9:a0:ff:db:33:54:d3:cd:
         09:da:9d:4e:82:33:e8:f6:ec:59:cf:d6:e3:c0:2f:69:01:7c:
         31:6c:25:2a:7a:0d:6d:45:30:18:c7:bd:72:fe:f6:4b:e0:0c:
         73:b3:6d:a7:62:4d:d0:3b:83:ff:ef:f2:0d:65:e2:24:ad:4a:
         13:a7:4f:87:1e:f5:ff:c5:8e:b9:2e:da:fa:75:52:a6:6a:3a:
         94:eb:a2:bd:e4:69:b0:f9:e7:42:0c:f6:70:6b:4d:9b:1a:a9:
         06:fa:7c:2b:fc:c6:62:b4:5a:94:4c:10:d1:30:68:08:22:49:
         cb:91:54:e6:72:f0:bb:24:21:23:40:81:c4:b8:50:48:98:66:
         a0:3d:fb:de:58:f3:c3:f8:ea:25:69:6a:9b:fe:6a:58:ba:2e:
         0b:c1:3a:32:2b:e8:4b:52:8c:e5:56:1e:e0:07:4c:93:78:ab:
         6d:98:95:a2:74:89:c7:8a:6f:0f:f2:e2:36:2f:f8:2d:d2:6f:
         79:fc:53:93
-----BEGIN CERTIFICATE-----
MIIEJjCCAw6gAwIBAgIBATANBgkqhkiG9w0BAQsFADCBnTELMAkGA1UEBhMCQ04x
EjAQBgNVBAgMCUd1YW5nZG9uZzERMA8GA1UEBwwIU2hlbnpoZW4xFTATBgNVBAoM
DEZyZWVTaWduIEx0ZDEMMAoGA1UECwwDUiZEMRwwGgYDVQQDDBNmZWRvcmEuZnJl
ZXNpZ24ubmV0MSQwIgYJKoZIhvcNAQkBFhV0YW96aGlqaWFuZ0BnbWFpbC5jb20w
HhcNMTUxMTIwMDY0NTM2WhcNMTgxMTE5MDY0NTM2WjCBkTELMAkGA1UEBhMCQ04x
EjAQBgNVBAgMCUd1YW5nZG9uZzEZMBcGA1UECgwQVGVzdCBDb21wYW55IEx0ZDEY
MBYGA1UECwwPVGVzdCBEZXBhcnRtZW50MRowGAYDVQQDDBF0ZXN0LmZyZWVzaWdu
Lm5ldDEdMBsGCSqGSIb3DQEJARYOdHR0dEBnbWFpbC5jb20wggEiMA0GCSqGSIb3
DQEBAQUAA4IBDwAwggEKAoIBAQDIL/2IsWOtJzpO+6LY7Ivk8ulO48H5RV+ZApLg
mC/8gLA39hPTzqhNteRHrAQGoW64HyQ3pnvejxAxpo1kc1mY4R+7PhGOR333U68l
wcAa3xyeuTVRW5KieH+m5EaSNlG2Rzbe/RvlO2GMBc0OBIase1NH6PQThzqWDSY5
OcbShiYaA5t1vW3dmoM743hVpDUIg+0fVXQktdu94SQpgnFnzvJMCcEhOKQbKEs9
Q/oPw4wpIy5+wfB/WK2lgaZLyjif44XQJ8YwVKzUC/UklnVMetMtITT+pgiVdzuT
IWs4I9Er4XZumFsVRm79VehBgxvDB3LiRTDk48I8kKfAIlLTAgMBAAGjezB5MAkG
A1UdEwQCMAAwLAYJYIZIAYb4QgENBB8WHU9wZW5TU0wgR2VuZXJhdGVkIENlcnRp
ZmljYXRlMB0GA1UdDgQWBBTvln+XGSuHda+y97RvWCYb6aoHPjAfBgNVHSMEGDAW
gBSvZM0xqUz7XA3jxJEOqRzYzhmX5jANBgkqhkiG9w0BAQsFAAOCAQEAcpl29iP2
TGNXmSfI6q2Qxa12Bi+xGWPINVMyDCWG+TLdFketi/LQzompfQjlEtrGoWBbEK65
2mln6EMV3oCrT9mg/9szVNPNCdqdToIz6PbsWc/W48AvaQF8MWwlKnoNbUUwGMe9
cv72S+AMc7Ntp2JN0DuD/+/yDWXiJK1KE6dPhx71/8WOuS7a+nVSpmo6lOuiveRp
sPnnQgz2cGtNmxqpBvp8K/zGYrRalEwQ0TBoCCJJy5FU5nLwuyQhI0CBxLhQSJhm
oD373ljzw/jqJWlqm/5qWLouC8E6MivoS1KM5VYe4AdMk3irbZiVonSJx4pvD/Li
Ni/4LdJvefxTkw==
-----END CERTIFICATE-----
